target datalayout = "e-m:e-p270:32:32-p271:32:32-p272:64:64-i64:64-i128:128-f80:128-n8:16:32:64-S128"
target triple = "x86_64-unknown-linux-gnu"

%struct.Bigint = type { ptr, i32, i32, i32, i32, [1 x i32] }

; Function Attrs: nounwind uwtable
define internal i32 @cmp(ptr noundef %a, ptr noundef %b) #0 {
entry:
  %retval = alloca i32, align 4
  %a.addr = alloca ptr, align 8
  %b.addr = alloca ptr, align 8
  %xa = alloca ptr, align 8
  %xa0 = alloca ptr, align 8
  %xb = alloca ptr, align 8
  %xb0 = alloca ptr, align 8
  %i = alloca i32, align 4
  %j = alloca i32, align 4
  store ptr %a, ptr %a.addr, align 8
  store ptr %b, ptr %b.addr, align 8
  %0 = load ptr, ptr %a.addr, align 8
  %wds = getelementptr inbounds %struct.Bigint, ptr %0, i32 0, i32 4
  %1 = load i32, ptr %wds, align 4
  store i32 %1, ptr %i, align 4
  %2 = load ptr, ptr %b.addr, align 8
  %wds1 = getelementptr inbounds %struct.Bigint, ptr %2, i32 0, i32 4
  %3 = load i32, ptr %wds1, align 4
  store i32 %3, ptr %j, align 4
  %4 = load i32, ptr %j, align 4
  %5 = load i32, ptr %i, align 4
  %sub = sub nsw i32 %5, %4
  store i32 %sub, ptr %i, align 4
  %tobool = icmp ne i32 %sub, 0
  br i1 %tobool, label %if.then, label %if.end

if.then:                                          ; preds = %entry
  %6 = load i32, ptr %i, align 4
  store i32 %6, ptr %retval, align 4
  br label %return

if.end:                                           ; preds = %entry
  %7 = load ptr, ptr %a.addr, align 8
  %x = getelementptr inbounds %struct.Bigint, ptr %7, i32 0, i32 5
  %arraydecay = getelementptr inbounds [1 x i32], ptr %x, i64 0, i64 0
  store ptr %arraydecay, ptr %xa0, align 8
  %8 = load ptr, ptr %xa0, align 8
  %9 = load i32, ptr %j, align 4
  %idx.ext = sext i32 %9 to i64
  %add.ptr = getelementptr inbounds i32, ptr %8, i64 %idx.ext
  store ptr %add.ptr, ptr %xa, align 8
  %10 = load ptr, ptr %b.addr, align 8
  %x2 = getelementptr inbounds %struct.Bigint, ptr %10, i32 0, i32 5
  %arraydecay3 = getelementptr inbounds [1 x i32], ptr %x2, i64 0, i64 0
  store ptr %arraydecay3, ptr %xb0, align 8
  %11 = load ptr, ptr %xb0, align 8
  %12 = load i32, ptr %j, align 4
  %idx.ext4 = sext i32 %12 to i64
  %add.ptr5 = getelementptr inbounds i32, ptr %11, i64 %idx.ext4
  store ptr %add.ptr5, ptr %xb, align 8
  br label %for.cond

for.cond:                                         ; preds = %if.end12, %if.end
  %13 = load ptr, ptr %xa, align 8
  %incdec.ptr = getelementptr inbounds i32, ptr %13, i32 -1
  store ptr %incdec.ptr, ptr %xa, align 8
  %14 = load i32, ptr %incdec.ptr, align 4
  %15 = load ptr, ptr %xb, align 8
  %incdec.ptr6 = getelementptr inbounds i32, ptr %15, i32 -1
  store ptr %incdec.ptr6, ptr %xb, align 8
  %16 = load i32, ptr %incdec.ptr6, align 4
  %cmp = icmp ne i32 %14, %16
  br i1 %cmp, label %if.then7, label %if.end9

if.then7:                                         ; preds = %for.cond
  %17 = load ptr, ptr %xa, align 8
  %18 = load i32, ptr %17, align 4
  %19 = load ptr, ptr %xb, align 8
  %20 = load i32, ptr %19, align 4
  %cmp8 = icmp ult i32 %18, %20
  %cond = select i1 %cmp8, i32 -1, i32 1
  store i32 %cond, ptr %retval, align 4
  br label %return

if.end9:                                          ; preds = %for.cond
  %21 = load ptr, ptr %xa, align 8
  %22 = load ptr, ptr %xa0, align 8
  %cmp10 = icmp ule ptr %21, %22
  br i1 %cmp10, label %if.then11, label %if.end12

if.then11:                                        ; preds = %if.end9
  br label %for.end

if.end12:                                         ; preds = %if.end9
  br label %for.cond

for.end:                                          ; preds = %if.then11
  store i32 0, ptr %retval, align 4
  br label %return

return:                                           ; preds = %for.end, %if.then7, %if.then
  %23 = load i32, ptr %retval, align 4
  ret i32 %23
}

; Function Attrs: nounwind uwtable
define internal i32 @quorem(ptr noundef %b, ptr noundef %S) #0 {
entry:
  %retval = alloca i32, align 4
  %b.addr = alloca ptr, align 8
  %S.addr = alloca ptr, align 8
  %n = alloca i32, align 4
  %bx = alloca ptr, align 8
  %bxe = alloca ptr, align 8
  %q = alloca i32, align 4
  %sx = alloca ptr, align 8
  %sxe = alloca ptr, align 8
  %borrow = alloca i64, align 8
  %carry = alloca i64, align 8
  %y = alloca i64, align 8
  %ys = alloca i64, align 8
  store ptr %b, ptr %b.addr, align 8
  store ptr %S, ptr %S.addr, align 8
  %0 = load ptr, ptr %S.addr, align 8
  %wds = getelementptr inbounds %struct.Bigint, ptr %0, i32 0, i32 4
  %1 = load i32, ptr %wds, align 4
  store i32 %1, ptr %n, align 4
  %2 = load ptr, ptr %b.addr, align 8
  %wds1 = getelementptr inbounds %struct.Bigint, ptr %2, i32 0, i32 4
  %3 = load i32, ptr %wds1, align 4
  %4 = load i32, ptr %n, align 4
  %cmp = icmp slt i32 %3, %4
  br i1 %cmp, label %if.then, label %if.end

if.then:                                          ; preds = %entry
  store i32 0, ptr %retval, align 4
  br label %return

if.end:                                           ; preds = %entry
  %5 = load ptr, ptr %S.addr, align 8
  %x = getelementptr inbounds %struct.Bigint, ptr %5, i32 0, i32 5
  %arraydecay = getelementptr inbounds [1 x i32], ptr %x, i64 0, i64 0
  store ptr %arraydecay, ptr %sx, align 8
  %6 = load ptr, ptr %sx, align 8
  %7 = load i32, ptr %n, align 4
  %dec = add nsw i32 %7, -1
  store i32 %dec, ptr %n, align 4
  %idx.ext = sext i32 %dec to i64
  %add.ptr = getelementptr inbounds i32, ptr %6, i64 %idx.ext
  store ptr %add.ptr, ptr %sxe, align 8
  %8 = load ptr, ptr %b.addr, align 8
  %x2 = getelementptr inbounds %struct.Bigint, ptr %8, i32 0, i32 5
  %arraydecay3 = getelementptr inbounds [1 x i32], ptr %x2, i64 0, i64 0
  store ptr %arraydecay3, ptr %bx, align 8
  %9 = load ptr, ptr %bx, align 8
  %10 = load i32, ptr %n, align 4
  %idx.ext4 = sext i32 %10 to i64
  %add.ptr5 = getelementptr inbounds i32, ptr %9, i64 %idx.ext4
  store ptr %add.ptr5, ptr %bxe, align 8
  %11 = load ptr, ptr %bxe, align 8
  %12 = load i32, ptr %11, align 4
  %13 = load ptr, ptr %sxe, align 8
  %14 = load i32, ptr %13, align 4
  %add = add i32 %14, 1
  %div = udiv i32 %12, %add
  store i32 %div, ptr %q, align 4
  %15 = load i32, ptr %q, align 4
  %tobool = icmp ne i32 %15, 0
  br i1 %tobool, label %if.then6, label %if.end29

if.then6:                                         ; preds = %if.end
  store i64 0, ptr %borrow, align 8
  store i64 0, ptr %carry, align 8
  br label %do.body

do.body:                                          ; preds = %do.cond, %if.then6
  %16 = load ptr, ptr %sx, align 8
  %incdec.ptr = getelementptr inbounds i32, ptr %16, i32 1
  store ptr %incdec.ptr, ptr %sx, align 8
  %17 = load i32, ptr %16, align 4
  %conv = zext i32 %17 to i64
  %18 = load i32, ptr %q, align 4
  %conv7 = zext i32 %18 to i64
  %mul = mul i64 %conv, %conv7
  %19 = load i64, ptr %carry, align 8
  %add8 = add i64 %mul, %19
  store i64 %add8, ptr %ys, align 8
  %20 = load i64, ptr %ys, align 8
  %shr = lshr i64 %20, 32
  store i64 %shr, ptr %carry, align 8
  %21 = load ptr, ptr %bx, align 8
  %22 = load i32, ptr %21, align 4
  %conv9 = zext i32 %22 to i64
  %23 = load i64, ptr %ys, align 8
  %and = and i64 %23, 4294967295
  %sub = sub i64 %conv9, %and
  %24 = load i64, ptr %borrow, align 8
  %sub10 = sub i64 %sub, %24
  store i64 %sub10, ptr %y, align 8
  %25 = load i64, ptr %y, align 8
  %shr11 = lshr i64 %25, 32
  %and12 = and i64 %shr11, 1
  store i64 %and12, ptr %borrow, align 8
  %26 = load i64, ptr %y, align 8
  %and13 = and i64 %26, 4294967295
  %conv14 = trunc i64 %and13 to i32
  %27 = load ptr, ptr %bx, align 8
  %incdec.ptr15 = getelementptr inbounds i32, ptr %27, i32 1
  store ptr %incdec.ptr15, ptr %bx, align 8
  store i32 %conv14, ptr %27, align 4
  br label %do.cond

do.cond:                                          ; preds = %do.body
  %28 = load ptr, ptr %sx, align 8
  %29 = load ptr, ptr %sxe, align 8
  %cmp16 = icmp ule ptr %28, %29
  br i1 %cmp16, label %do.body, label %do.end, !llvm.loop !37

do.end:                                           ; preds = %do.cond
  %30 = load ptr, ptr %bxe, align 8
  %31 = load i32, ptr %30, align 4
  %tobool18 = icmp ne i32 %31, 0
  br i1 %tobool18, label %if.end28, label %if.then19

if.then19:                                        ; preds = %do.end
  %32 = load ptr, ptr %b.addr, align 8
  %x20 = getelementptr inbounds %struct.Bigint, ptr %32, i32 0, i32 5
  %arraydecay21 = getelementptr inbounds [1 x i32], ptr %x20, i64 0, i64 0
  store ptr %arraydecay21, ptr %bx, align 8
  br label %while.cond

while.cond:                                       ; preds = %while.body, %if.then19
  %33 = load ptr, ptr %bxe, align 8
  %incdec.ptr22 = getelementptr inbounds i32, ptr %33, i32 -1
  store ptr %incdec.ptr22, ptr %bxe, align 8
  %34 = load ptr, ptr %bx, align 8
  %cmp23 = icmp ugt ptr %incdec.ptr22, %34
  br i1 %cmp23, label %land.rhs, label %land.end

land.rhs:                                         ; preds = %while.cond
  %35 = load ptr, ptr %bxe, align 8
  %36 = load i32, ptr %35, align 4
  %tobool25 = icmp ne i32 %36, 0
  %lnot = xor i1 %tobool25, true
  br label %land.end

land.end:                                         ; preds = %land.rhs, %while.cond
  %37 = phi i1 [ false, %while.cond ], [ %lnot, %land.rhs ]
  br i1 %37, label %while.body, label %while.end

while.body:                                       ; preds = %land.end
  %38 = load i32, ptr %n, align 4
  %dec26 = add nsw i32 %38, -1
  store i32 %dec26, ptr %n, align 4
  br label %while.cond, !llvm.loop !38

while.end:                                        ; preds = %land.end
  %39 = load i32, ptr %n, align 4
  %40 = load ptr, ptr %b.addr, align 8
  %wds27 = getelementptr inbounds %struct.Bigint, ptr %40, i32 0, i32 4
  store i32 %39, ptr %wds27, align 4
  br label %if.end28

if.end28:                                         ; preds = %while.end, %do.end
  br label %if.end29

if.end29:                                         ; preds = %if.end28, %if.end
  %41 = load ptr, ptr %b.addr, align 8
  %42 = load ptr, ptr %S.addr, align 8
  %call = call i32 @cmp(ptr noundef %41, ptr noundef %42)
  %cmp30 = icmp sge i32 %call, 0
  br i1 %cmp30, label %if.then32, label %if.end74

if.then32:                                        ; preds = %if.end29
  %43 = load i32, ptr %q, align 4
  %inc = add i32 %43, 1
  store i32 %inc, ptr %q, align 4
  store i64 0, ptr %borrow, align 8
  store i64 0, ptr %carry, align 8
  %44 = load ptr, ptr %b.addr, align 8
  %x33 = getelementptr inbounds %struct.Bigint, ptr %44, i32 0, i32 5
  %arraydecay34 = getelementptr inbounds [1 x i32], ptr %x33, i64 0, i64 0
  store ptr %arraydecay34, ptr %bx, align 8
  %45 = load ptr, ptr %S.addr, align 8
  %x35 = getelementptr inbounds %struct.Bigint, ptr %45, i32 0, i32 5
  %arraydecay36 = getelementptr inbounds [1 x i32], ptr %x35, i64 0, i64 0
  store ptr %arraydecay36, ptr %sx, align 8
  br label %do.body37

do.body37:                                        ; preds = %do.cond51, %if.then32
  %46 = load ptr, ptr %sx, align 8
  %incdec.ptr38 = getelementptr inbounds i32, ptr %46, i32 1
  store ptr %incdec.ptr38, ptr %sx, align 8
  %47 = load i32, ptr %46, align 4
  %conv39 = zext i32 %47 to i64
  %48 = load i64, ptr %carry, align 8
  %add40 = add i64 %conv39, %48
  store i64 %add40, ptr %ys, align 8
  %49 = load i64, ptr %ys, align 8
  %shr41 = lshr i64 %49, 32
  store i64 %shr41, ptr %carry, align 8
  %50 = load ptr, ptr %bx, align 8
  %51 = load i32, ptr %50, align 4
  %conv42 = zext i32 %51 to i64
  %52 = load i64, ptr %ys, align 8
  %and43 = and i64 %52, 4294967295
  %sub44 = sub i64 %conv42, %and43
  %53 = load i64, ptr %borrow, align 8
  %sub45 = sub i64 %sub44, %53
  store i64 %sub45, ptr %y, align 8
  %54 = load i64, ptr %y, align 8
  %shr46 = lshr i64 %54, 32
  %and47 = and i64 %shr46, 1
  store i64 %and47, ptr %borrow, align 8
  %55 = load i64, ptr %y, align 8
  %and48 = and i64 %55, 4294967295
  %conv49 = trunc i64 %and48 to i32
  %56 = load ptr, ptr %bx, align 8
  %incdec.ptr50 = getelementptr inbounds i32, ptr %56, i32 1
  store ptr %incdec.ptr50, ptr %bx, align 8
  store i32 %conv49, ptr %56, align 4
  br label %do.cond51

do.cond51:                                        ; preds = %do.body37
  %57 = load ptr, ptr %sx, align 8
  %58 = load ptr, ptr %sxe, align 8
  %cmp52 = icmp ule ptr %57, %58
  br i1 %cmp52, label %do.body37, label %do.end54, !llvm.loop !39

do.end54:                                         ; preds = %do.cond51
  %59 = load ptr, ptr %b.addr, align 8
  %x55 = getelementptr inbounds %struct.Bigint, ptr %59, i32 0, i32 5
  %arraydecay56 = getelementptr inbounds [1 x i32], ptr %x55, i64 0, i64 0
  store ptr %arraydecay56, ptr %bx, align 8
  %60 = load ptr, ptr %bx, align 8
  %61 = load i32, ptr %n, align 4
  %idx.ext57 = sext i32 %61 to i64
  %add.ptr58 = getelementptr inbounds i32, ptr %60, i64 %idx.ext57
  store ptr %add.ptr58, ptr %bxe, align 8
  %62 = load ptr, ptr %bxe, align 8
  %63 = load i32, ptr %62, align 4
  %tobool59 = icmp ne i32 %63, 0
  br i1 %tobool59, label %if.end73, label %if.then60

if.then60:                                        ; preds = %do.end54
  br label %while.cond61

while.cond61:                                     ; preds = %while.body69, %if.then60
  %64 = load ptr, ptr %bxe, align 8
  %incdec.ptr62 = getelementptr inbounds i32, ptr %64, i32 -1
  store ptr %incdec.ptr62, ptr %bxe, align 8
  %65 = load ptr, ptr %bx, align 8
  %cmp63 = icmp ugt ptr %incdec.ptr62, %65
  br i1 %cmp63, label %land.rhs65, label %land.end68

land.rhs65:                                       ; preds = %while.cond61
  %66 = load ptr, ptr %bxe, align 8
  %67 = load i32, ptr %66, align 4
  %tobool66 = icmp ne i32 %67, 0
  %lnot67 = xor i1 %tobool66, true
  br label %land.end68

land.end68:                                       ; preds = %land.rhs65, %while.cond61
  %68 = phi i1 [ false, %while.cond61 ], [ %lnot67, %land.rhs65 ]
  br i1 %68, label %while.body69, label %while.end71

while.body69:                                     ; preds = %land.end68
  %69 = load i32, ptr %n, align 4
  %dec70 = add nsw i32 %69, -1
  store i32 %dec70, ptr %n, align 4
  br label %while.cond61, !llvm.loop !40

while.end71:                                      ; preds = %land.end68
  %70 = load i32, ptr %n, align 4
  %71 = load ptr, ptr %b.addr, align 8
  %wds72 = getelementptr inbounds %struct.Bigint, ptr %71, i32 0, i32 4
  store i32 %70, ptr %wds72, align 4
  br label %if.end73

if.end73:                                         ; preds = %while.end71, %do.end54
  br label %if.end74

if.end74:                                         ; preds = %if.end73, %if.end29
  %72 = load i32, ptr %q, align 4
  store i32 %72, ptr %retval, align 4
  br label %return

return:                                           ; preds = %if.end74, %if.then
  %73 = load i32, ptr %retval, align 4
  ret i32 %73
}