; Function Attrs: nofree norecurse nosync nounwind memory(argmem: readwrite) uwtable
define internal fastcc i32 @quorem(ptr noundef captures(none) %b, ptr noundef readonly %S) unnamed_addr #7 {
entry:
  %wds = getelementptr inbounds nuw i8, ptr %S, i64 20
  %0 = load i32, ptr %wds, align 4
  %wds1 = getelementptr inbounds nuw i8, ptr %b, i64 20
  %1 = load i32, ptr %wds1, align 4
  %cmp = icmp slt i32 %1, %0
  br i1 %cmp, label %return, label %if.end

if.end:                                           ; preds = %entry
  %x = getelementptr inbounds nuw i8, ptr %S, i64 24
  %dec = add nsw i32 %0, -1
  %idx.ext = sext i32 %dec to i64
  %add.ptr = getelementptr inbounds i32, ptr %x, i64 %idx.ext
  %x2.ptr.ptr = getelementptr inbounds nuw i8, ptr %b, i64 24
  %add.ptr5.idx = shl nsw i64 %idx.ext, 2
  %2 = getelementptr i8, ptr %b, i64 %add.ptr5.idx
  %add.ptr5.ptr = getelementptr i8, ptr %2, i64 24
  %3 = load i32, ptr %add.ptr5.ptr, align 4
  %4 = load i32, ptr %add.ptr, align 4
  %add = add i32 %4, 1
  %div = udiv i32 %3, %add
  %tobool.not = icmp ugt i32 %add, %3
  br i1 %tobool.not, label %if.end29, label %do.body.preheader

do.body.preheader:                                ; preds = %if.end
  %conv7 = zext i32 %div to i64
  br label %do.body

do.body:                                          ; preds = %do.body.preheader, %do.body
  %bx.0 = phi ptr [ %incdec.ptr15, %do.body ], [ %x2.ptr.ptr, %do.body.preheader ]
  %sx.0 = phi ptr [ %incdec.ptr, %do.body ], [ %x, %do.body.preheader ]
  %borrow.0 = phi i64 [ %and12, %do.body ], [ 0, %do.body.preheader ]
  %carry.0 = phi i64 [ %shr, %do.body ], [ 0, %do.body.preheader ]
  %incdec.ptr = getelementptr inbounds nuw i8, ptr %sx.0, i64 4
  %5 = load i32, ptr %sx.0, align 4
  %conv = zext i32 %5 to i64
  %mul = mul nuw i64 %conv, %conv7
  %add8 = add nuw i64 %mul, %carry.0
  %shr = lshr i64 %add8, 32
  %6 = load i32, ptr %bx.0, align 4
  %conv9 = zext i32 %6 to i64
  %and = and i64 %add8, 4294967295
  %7 = add nuw nsw i64 %borrow.0, %and
  %sub10 = sub nsw i64 %conv9, %7
  %shr11 = lshr i64 %sub10, 32
  %and12 = and i64 %shr11, 1
  %conv14 = trunc i64 %sub10 to i32
  %incdec.ptr15 = getelementptr inbounds nuw i8, ptr %bx.0, i64 4
  store i32 %conv14, ptr %bx.0, align 4
  %cmp16.not = icmp ugt ptr %incdec.ptr, %add.ptr
  br i1 %cmp16.not, label %do.end, label %do.body, !llvm.loop !39

do.end:                                           ; preds = %do.body
  %8 = load i32, ptr %add.ptr5.ptr, align 4
  %tobool18.not = icmp eq i32 %8, 0
  br i1 %tobool18.not, label %while.cond.preheader, label %do.end.if.end29_crit_edge

do.end.if.end29_crit_edge:                        ; preds = %do.end
  %.pre = load i32, ptr %wds1, align 4
  br label %if.end29

while.cond.preheader:                             ; preds = %do.end
  %cmp2358 = icmp sgt i32 %0, 2
  br i1 %cmp2358, label %land.rhs.preheader, label %while.end

land.rhs.preheader:                               ; preds = %while.cond.preheader
  %bxe.0.add57 = add nsw i64 %add.ptr5.idx, 20
  br label %land.rhs

land.rhs:                                         ; preds = %land.rhs.preheader, %while.body
  %bxe.0.add60 = phi i64 [ %bxe.0.add, %while.body ], [ %bxe.0.add57, %land.rhs.preheader ]
  %n.159 = phi i32 [ %dec26, %while.body ], [ %dec, %land.rhs.preheader ]
  %incdec.ptr22.ptr = getelementptr inbounds i8, ptr %b, i64 %bxe.0.add60
  %9 = load i32, ptr %incdec.ptr22.ptr, align 4
  %tobool25.not = icmp eq i32 %9, 0
  br i1 %tobool25.not, label %while.body, label %while.end

while.body:                                       ; preds = %land.rhs
  %dec26 = add nsw i32 %n.159, -1
  %bxe.0.add = add nsw i64 %bxe.0.add60, -4
  %cmp23 = icmp sgt i64 %bxe.0.add60, 28
  br i1 %cmp23, label %land.rhs, label %while.end, !llvm.loop !40

while.end:                                        ; preds = %land.rhs, %while.body, %while.cond.preheader
  %n.1.lcssa = phi i32 [ %dec, %while.cond.preheader ], [ %dec26, %while.body ], [ %n.159, %land.rhs ]
  store i32 %n.1.lcssa, ptr %wds1, align 4
  br label %if.end29

if.end29:                                         ; preds = %do.end.if.end29_crit_edge, %while.end, %if.end
  %10 = phi i32 [ %.pre, %do.end.if.end29_crit_edge ], [ %n.1.lcssa, %while.end ], [ %1, %if.end ]
  %n.0 = phi i32 [ %dec, %do.end.if.end29_crit_edge ], [ %n.1.lcssa, %while.end ], [ %dec, %if.end ]
  %11 = load i32, ptr %wds, align 4
  %tobool.not.i = icmp eq i32 %10, %11
  br i1 %tobool.not.i, label %if.end.i, label %cmp.exit

if.end.i:                                         ; preds = %if.end29
  %idx.ext.i = sext i32 %10 to i64
  %add.ptr.idx.i = shl nsw i64 %idx.ext.i, 2
  %x.add.i = add nsw i64 %add.ptr.idx.i, 24
  %add.ptr5.i = getelementptr inbounds i32, ptr %x, i64 %idx.ext.i
  br label %for.cond.i

for.cond.i:                                       ; preds = %if.end9.i, %if.end.i
  %xb.0.i = phi ptr [ %add.ptr5.i, %if.end.i ], [ %incdec.ptr6.i, %if.end9.i ]
  %xa.0.idx.i = phi i64 [ %x.add.i, %if.end.i ], [ %xa.0.add.i, %if.end9.i ]
  %xa.0.add.i = add nsw i64 %xa.0.idx.i, -4
  %incdec.ptr.ptr.i = getelementptr inbounds i8, ptr %b, i64 %xa.0.add.i
  %12 = load i32, ptr %incdec.ptr.ptr.i, align 4
  %incdec.ptr6.i = getelementptr inbounds i8, ptr %xb.0.i, i64 -4
  %13 = load i32, ptr %incdec.ptr6.i, align 4
  %cmp.not.i = icmp eq i32 %12, %13
  br i1 %cmp.not.i, label %if.end9.i, label %if.then7.i

if.then7.i:                                       ; preds = %for.cond.i
  %cmp8.i = icmp ult i32 %12, %13
  br i1 %cmp8.i, label %return, label %do.body37.preheader

if.end9.i:                                        ; preds = %for.cond.i
  %cmp10.not.i = icmp sgt i64 %xa.0.idx.i, 28
  br i1 %cmp10.not.i, label %for.cond.i, label %do.body37.preheader

cmp.exit:                                         ; preds = %if.end29
  %cmp30.not = icmp slt i32 %10, %11
  br i1 %cmp30.not, label %return, label %do.body37.preheader

do.body37.preheader:                              ; preds = %if.end9.i, %if.then7.i, %cmp.exit
  br label %do.body37

do.body37:                                        ; preds = %do.body37.preheader, %do.body37
  %bx.1 = phi ptr [ %incdec.ptr50, %do.body37 ], [ %x2.ptr.ptr, %do.body37.preheader ]
  %sx.1 = phi ptr [ %incdec.ptr38, %do.body37 ], [ %x, %do.body37.preheader ]
  %borrow.1 = phi i64 [ %and47, %do.body37 ], [ 0, %do.body37.preheader ]
  %incdec.ptr38 = getelementptr inbounds nuw i8, ptr %sx.1, i64 4
  %14 = load i32, ptr %sx.1, align 4
  %conv39 = zext i32 %14 to i64
  %15 = load i32, ptr %bx.1, align 4
  %conv42 = zext i32 %15 to i64
  %16 = add nuw nsw i64 %borrow.1, %conv39
  %sub45 = sub nsw i64 %conv42, %16
  %shr46 = lshr i64 %sub45, 32
  %and47 = and i64 %shr46, 1
  %conv49 = trunc i64 %sub45 to i32
  %incdec.ptr50 = getelementptr inbounds nuw i8, ptr %bx.1, i64 4
  store i32 %conv49, ptr %bx.1, align 4
  %cmp52.not = icmp ugt ptr %incdec.ptr38, %add.ptr
  br i1 %cmp52.not, label %do.end54, label %do.body37, !llvm.loop !41

do.end54:                                         ; preds = %do.body37
  %inc = add i32 %div, 1
  %idx.ext57 = sext i32 %n.0 to i64
  %add.ptr58.idx = shl nsw i64 %idx.ext57, 2
  %17 = getelementptr i8, ptr %b, i64 %add.ptr58.idx
  %add.ptr58.ptr = getelementptr i8, ptr %17, i64 24
  %18 = load i32, ptr %add.ptr58.ptr, align 4
  %tobool59.not = icmp eq i32 %18, 0
  br i1 %tobool59.not, label %while.cond61.preheader, label %return

while.cond61.preheader:                           ; preds = %do.end54
  %cmp6363 = icmp sgt i32 %n.0, 1
  br i1 %cmp6363, label %land.rhs65.preheader, label %while.end71

land.rhs65.preheader:                             ; preds = %while.cond61.preheader
  %bxe.1.add62 = add nuw nsw i64 %add.ptr58.idx, 20
  br label %land.rhs65

land.rhs65:                                       ; preds = %land.rhs65.preheader, %while.body69
  %bxe.1.add65 = phi i64 [ %bxe.1.add, %while.body69 ], [ %bxe.1.add62, %land.rhs65.preheader ]
  %n.264 = phi i32 [ %dec70, %while.body69 ], [ %n.0, %land.rhs65.preheader ]
  %incdec.ptr62.ptr = getelementptr inbounds i8, ptr %b, i64 %bxe.1.add65
  %19 = load i32, ptr %incdec.ptr62.ptr, align 4
  %tobool66.not = icmp eq i32 %19, 0
  br i1 %tobool66.not, label %while.body69, label %while.end71

while.body69:                                     ; preds = %land.rhs65
  %dec70 = add nsw i32 %n.264, -1
  %bxe.1.add = add nsw i64 %bxe.1.add65, -4
  %cmp63 = icmp sgt i64 %bxe.1.add65, 28
  br i1 %cmp63, label %land.rhs65, label %while.end71, !llvm.loop !42

while.end71:                                      ; preds = %land.rhs65, %while.body69, %while.cond61.preheader
  %n.2.lcssa = phi i32 [ %n.0, %while.cond61.preheader ], [ %dec70, %while.body69 ], [ %n.264, %land.rhs65 ]
  store i32 %n.2.lcssa, ptr %wds1, align 4
  br label %return

return:                                           ; preds = %if.then7.i, %cmp.exit, %while.end71, %do.end54, %entry
  %retval.0 = phi i32 [ 0, %entry ], [ %inc, %do.end54 ], [ %inc, %while.end71 ], [ %div, %cmp.exit ], [ %div, %if.then7.i ]
  ret i32 %retval.0
}